target datalayout = "e-m:e-p270:32:32-p271:32:32-p272:64:64-i64:64-i128:128-f80:128-n8:16:32:64-S128"
target triple = "x86_64-pc-linux-gnu"

; Function Attrs: nounwind uwtable
define hidden void @nghttp2_downcase(ptr noundef %0, i64 noundef %1) #0 {
  %3 = alloca ptr, align 8
  %4 = alloca i64, align 8
  %5 = alloca i64, align 8
  store ptr %0, ptr %3, align 8, !tbaa !3
  store i64 %1, ptr %4, align 8, !tbaa !12
  call void @llvm.lifetime.start.p0(i64 8, ptr %5) #5
  store i64 0, ptr %5, align 8, !tbaa !12
  br label %6

6:                                                ; preds = %21, %2
  %7 = load i64, ptr %5, align 8, !tbaa !12
  %8 = load i64, ptr %4, align 8, !tbaa !12
  %9 = icmp ult i64 %7, %8
  br i1 %9, label %10, label %24

10:                                               ; preds = %6
  %11 = load ptr, ptr %3, align 8, !tbaa !3
  %12 = load i64, ptr %5, align 8, !tbaa !12
  %13 = getelementptr inbounds nuw i8, ptr %11, i64 %12
  %14 = load i8, ptr %13, align 1, !tbaa !14
  %15 = zext i8 %14 to i64
  %16 = getelementptr inbounds nuw [256 x i8], ptr @DOWNCASE_TBL, i64 0, i64 %15
  %17 = load i8, ptr %16, align 1, !tbaa !14
  %18 = load ptr, ptr %3, align 8, !tbaa !3
  %19 = load i64, ptr %5, align 8, !tbaa !12
  %20 = getelementptr inbounds nuw i8, ptr %18, i64 %19
  store i8 %17, ptr %20, align 1, !tbaa !14
  br label %21

21:                                               ; preds = %10
  %22 = load i64, ptr %5, align 8, !tbaa !12
  %23 = add i64 %22, 1
  store i64 %23, ptr %5, align 8, !tbaa !12
  br label %6, !llvm.loop !15

24:                                               ; preds = %6
  call void @llvm.lifetime.end.p0(i64 8, ptr %5) #5
  ret void
}