; Function Attrs: nofree norecurse nosync nounwind memory(argmem: readwrite) uwtable
define hidden void @nghttp2_downcase(ptr noundef captures(none) %0, i64 noundef %1) local_unnamed_addr #3 {
  %.not = icmp eq i64 %1, 0
  br i1 %.not, label %._crit_edge, label %.lr.ph

.lr.ph:                                           ; preds = %2, %.lr.ph
  %.06 = phi i64 [ %8, %.lr.ph ], [ 0, %2 ]
  %3 = getelementptr inbounds nuw i8, ptr %0, i64 %.06
  %4 = load i8, ptr %3, align 1, !tbaa !3
  %5 = zext i8 %4 to i64
  %6 = getelementptr inbounds nuw [256 x i8], ptr @DOWNCASE_TBL, i64 0, i64 %5
  %7 = load i8, ptr %6, align 1, !tbaa !3
  store i8 %7, ptr %3, align 1, !tbaa !3
  %8 = add nuw i64 %.06, 1
  %exitcond.not = icmp eq i64 %8, %1
  br i1 %exitcond.not, label %._crit_edge, label %.lr.ph, !llvm.loop !6

._crit_edge:                                      ; preds = %.lr.ph, %2
  ret void
}